; Function Attrs: mustprogress uwtable
define i64 @_ZN3net13QuicBandwidth21FromBytesAndTimeDeltaEmNS_8QuicTime5DeltaE(i64 noundef %0, i64 %1, i64 %2) local_unnamed_addr #0 align 2 personality ptr @__gxx_personality_v0 {
  %4 = alloca %"class.net::QuicBandwidth", align 8
  %5 = mul i64 %0, 1000000
  %6 = udiv i64 %5, %2
  %7 = shl nsw i64 %6, 3
  call void @_ZN3net13QuicBandwidthC1El(ptr noundef nonnull align 8 dereferenceable(8) %4, i64 noundef %7)
  %8 = load i64, ptr %4, align 8
  ret i64 %8
}